target datalayout = "e-m:e-p270:32:32-p271:32:32-p272:64:64-i64:64-i128:128-f80:128-n8:16:32:64-S128"
target triple = "x86_64-pc-linux-gnu"

%union.pthread_mutex_t = type { %struct.__pthread_mutex_s }
%struct.__pthread_mutex_s = type { i32, i32, i32, i32, i32, i16, i16, %struct.__pthread_internal_list }
%struct.__pthread_internal_list = type { ptr, ptr }

@trigger_down_front_end_bitmap = dso_local global ptr null, align 8
@trigger_mutex = internal global %union.pthread_mutex_t zeroinitializer, align 8
@.str.2 = private unnamed_addr constant [29 x i8] c"%s: pthread_mutex_lock(): %m\00", align 1
@.str.3 = private unnamed_addr constant [31 x i8] c"%s: pthread_mutex_unlock(): %m\00", align 1
@front_end_nodes = external global ptr, align 8
@__func__.trigger_front_end_down = private unnamed_addr constant [23 x i8] c"trigger_front_end_down\00", align 1
@front_end_node_cnt = external global i16, align 2

; Function Attrs: nounwind uwtable
define dso_local void @trigger_front_end_down(ptr noundef %0) #0 {
  %2 = alloca ptr, align 8
  %3 = alloca i32, align 4
  %4 = alloca i32, align 4
  %5 = alloca i32, align 4
  store ptr %0, ptr %2, align 8
  call void @llvm.lifetime.start.p0(i64 4, ptr %3) #10
  %6 = load ptr, ptr %2, align 8
  %7 = load ptr, ptr @front_end_nodes, align 8
  %8 = ptrtoint ptr %6 to i64
  %9 = ptrtoint ptr %7 to i64
  %10 = sub i64 %8, %9
  %11 = sdiv exact i64 %10, 296
  %12 = trunc i64 %11 to i32
  store i32 %12, ptr %3, align 4
  br label %13

13:                                               ; preds = %1
  call void @llvm.lifetime.start.p0(i64 4, ptr %4) #10
  %14 = call i32 @pthread_mutex_lock(ptr noundef @trigger_mutex) #10
  store i32 %14, ptr %4, align 4
  %15 = load i32, ptr %4, align 4
  %16 = icmp ne i32 %15, 0
  br i1 %16, label %17, label %20

17:                                               ; preds = %13
  %18 = load i32, ptr %4, align 4
  %19 = call ptr @__errno_location() #11
  store i32 %18, ptr %19, align 4
  call void (ptr, ...) @fatal_abort(ptr noundef @.str.2, ptr noundef @__func__.trigger_front_end_down) #12
  unreachable

20:                                               ; preds = %13
  call void @llvm.lifetime.end.p0(i64 4, ptr %4) #10
  br label %21

21:                                               ; preds = %20
  br label %22

22:                                               ; preds = %21
  %23 = load ptr, ptr @trigger_down_front_end_bitmap, align 8
  %24 = icmp eq ptr %23, null
  br i1 %24, label %25, label %29

25:                                               ; preds = %22
  %26 = load i16, ptr @front_end_node_cnt, align 2
  %27 = zext i16 %26 to i64
  %28 = call ptr @bit_alloc(i64 noundef %27)
  store ptr %28, ptr @trigger_down_front_end_bitmap, align 8
  br label %29

29:                                               ; preds = %25, %22
  %30 = load ptr, ptr @trigger_down_front_end_bitmap, align 8
  %31 = load i32, ptr %3, align 4
  %32 = sext i32 %31 to i64
  call void @bit_set(ptr noundef %30, i64 noundef %32)
  br label %33

33:                                               ; preds = %29
  call void @llvm.lifetime.start.p0(i64 4, ptr %5) #10
  %34 = call i32 @pthread_mutex_unlock(ptr noundef @trigger_mutex) #10
  store i32 %34, ptr %5, align 4
  %35 = load i32, ptr %5, align 4
  %36 = icmp ne i32 %35, 0
  br i1 %36, label %37, label %40

37:                                               ; preds = %33
  %38 = load i32, ptr %5, align 4
  %39 = call ptr @__errno_location() #11
  store i32 %38, ptr %39, align 4
  call void (ptr, ...) @fatal_abort(ptr noundef @.str.3, ptr noundef @__func__.trigger_front_end_down) #12
  unreachable

40:                                               ; preds = %33
  call void @llvm.lifetime.end.p0(i64 4, ptr %5) #10
  br label %41

41:                                               ; preds = %40
  br label %42

42:                                               ; preds = %41
  call void @llvm.lifetime.end.p0(i64 4, ptr %3) #10
  ret void
}